target datalayout = "e-m:e-p270:32:32-p271:32:32-p272:64:64-i64:64-i128:128-f80:128-n8:16:32:64-S128"
target triple = "x86_64-pc-linux-gnu"

%"class.net::TcpCubicSenderBytes" = type { %"class.net::TcpCubicSenderBase.base", %"class.net::CubicBytes", i64, i64, i64, i64, i64, i64, i64, i64 }
%"class.net::TcpCubicSenderBase.base" = type <{ %"class.net::SendAlgorithmInterface", %"class.net::HybridSlowStart", %"class.net::PrrSender", ptr, ptr, i8, [3 x i8], i32, i64, i64, i64, i8, i8, i8, i8, i8 }>
%"class.net::SendAlgorithmInterface" = type { ptr }
%"class.net::HybridSlowStart" = type { i8, i32, i64, i64, i32, %"class.net::QuicTime::Delta" }
%"class.net::QuicTime::Delta" = type { %"class.base::TimeDelta", i64 }
%"class.base::TimeDelta" = type { i64 }
%"class.net::PrrSender" = type { i64, i64, i64, i64 }
%"class.net::CubicBytes" = type { ptr, i32, %"class.net::QuicTime", %"class.net::QuicTime", i64, i64, i64, i64, i64, i32, i64 }
%"class.net::QuicTime" = type { i64 }
%"class.net::QuicBandwidth" = type { i64 }
%"class.net::TcpCubicSenderBase" = type <{ %"class.net::SendAlgorithmInterface", %"class.net::HybridSlowStart", %"class.net::PrrSender", ptr, ptr, i8, [3 x i8], i32, i64, i64, i64, i8, i8, i8, i8, i8, [3 x i8] }>
%"class.logging::CheckOpResult" = type { ptr }
%"class.logging::LogMessage" = type <{ i32, [4 x i8], %"class.std::__cxx11::basic_ostringstream", i64, ptr, i32, [4 x i8] }>
%"class.std::__cxx11::basic_ostringstream" = type { %"class.std::basic_ostream.base", %"class.std::__cxx11::basic_stringbuf", %"class.std::basic_ios" }
%"class.std::basic_ostream.base" = type { ptr }
%"class.std::__cxx11::basic_stringbuf" = type { %"class.std::basic_streambuf", i32, %"class.std::__cxx11::basic_string" }
%"class.std::basic_streambuf" = type { ptr, ptr, ptr, ptr, ptr, ptr, ptr, %"class.std::locale" }
%"class.std::locale" = type { ptr }
%"class.std::__cxx11::basic_string" = type { %"struct.std::__cxx11::basic_string<char>::_Alloc_hider", i64, %union.anon }
%"struct.std::__cxx11::basic_string<char>::_Alloc_hider" = type { ptr }
%union.anon = type { i64, [8 x i8] }
%"class.std::basic_ios" = type { %"class.std::ios_base", ptr, i8, i8, ptr, ptr, ptr, ptr }
%"class.std::ios_base" = type { ptr, i64, i64, i32, i32, i32, ptr, %"struct.std::ios_base::_Words", [8 x %"struct.std::ios_base::_Words"], i32, ptr, %"class.std::locale" }
%"struct.std::ios_base::_Words" = type { ptr, i64 }
%"struct.net::QuicConnectionStats" = type { i64, i64, i64, i64, i64, i64, i64, i64, i64, i64, i64, i64, i64, i64, i64, i64, i64, i64, i64, i64, i64, i64, i64, i64, i64, %"class.net::QuicBandwidth", i64, i64, i64, i32, %"class.net::QuicTime" }

@.str = private unnamed_addr constant [156 x i8] c"generated/home/dtcxzyw/WorkSpace/Projects/compilers/llvm-opt-benchmark/bench/libquic/libquic/src/net/quic/core/congestion_control/tcp_cubic_sender_bytes.cc\00", align 1

; Function Attrs: mustprogress nounwind uwtable
define linkonce_odr noundef nonnull align 8 dereferenceable(8) ptr @_ZN7logging10LogMessage6streamEv(ptr noundef nonnull align 8 dereferenceable(404) %0) #3 comdat align 2 {
  %2 = alloca ptr, align 8
  store ptr %0, ptr %2, align 8, !tbaa !64
  %3 = load ptr, ptr %2, align 8
  %4 = getelementptr inbounds nuw %"class.logging::LogMessage", ptr %3, i32 0, i32 2
  ret ptr %4
}

; Function Attrs: mustprogress nounwind uwtable
define linkonce_odr noundef ptr @_ZN7logging13CheckOpResult7messageB5cxx11Ev(ptr noundef nonnull align 8 dereferenceable(8) %0) #3 comdat align 2 {
  %2 = alloca ptr, align 8
  store ptr %0, ptr %2, align 8, !tbaa !58
  %3 = load ptr, ptr %2, align 8
  %4 = getelementptr inbounds nuw %"class.logging::CheckOpResult", ptr %3, i32 0, i32 0
  %5 = load ptr, ptr %4, align 8, !tbaa !62
  ret ptr %5
}

; Function Attrs: mustprogress nounwind uwtable
define linkonce_odr noundef zeroext i1 @_ZNK7logging13CheckOpResultcvbEv(ptr noundef nonnull align 8 dereferenceable(8) %0) #3 comdat align 2 {
  %2 = alloca ptr, align 8
  store ptr %0, ptr %2, align 8, !tbaa !58
  %3 = load ptr, ptr %2, align 8
  %4 = getelementptr inbounds nuw %"class.logging::CheckOpResult", ptr %3, i32 0, i32 0
  %5 = load ptr, ptr %4, align 8, !tbaa !62
  %6 = icmp ne ptr %5, null
  %7 = xor i1 %6, true
  ret i1 %7
}

; Function Attrs: mustprogress nounwind uwtable
define linkonce_odr void @_ZN7logging13CheckOpResultC2EPNSt7__cxx1112basic_stringIcSt11char_traitsIcESaIcEEE(ptr noundef nonnull align 8 dereferenceable(8) %0, ptr noundef %1) unnamed_addr #3 comdat align 2 {
  %3 = alloca ptr, align 8
  %4 = alloca ptr, align 8
  store ptr %0, ptr %3, align 8, !tbaa !58
  store ptr %1, ptr %4, align 8, !tbaa !60
  %5 = load ptr, ptr %3, align 8
  %6 = getelementptr inbounds nuw %"class.logging::CheckOpResult", ptr %5, i32 0, i32 0
  %7 = load ptr, ptr %4, align 8, !tbaa !60
  store ptr %7, ptr %6, align 8, !tbaa !62
  ret void
}

; Function Attrs: inlinehint mustprogress nounwind uwtable
define linkonce_odr noundef nonnull align 8 dereferenceable(8) ptr @_ZSt3maxImERKT_S2_S2_(ptr noundef nonnull align 8 dereferenceable(8) %0, ptr noundef nonnull align 8 dereferenceable(8) %1) #7 comdat {
  %3 = alloca ptr, align 8
  %4 = alloca ptr, align 8
  %5 = alloca ptr, align 8
  store ptr %0, ptr %4, align 8, !tbaa !42
  store ptr %1, ptr %5, align 8, !tbaa !42
  %6 = load ptr, ptr %4, align 8, !tbaa !42
  %7 = load i64, ptr %6, align 8, !tbaa !14
  %8 = load ptr, ptr %5, align 8, !tbaa !42
  %9 = load i64, ptr %8, align 8, !tbaa !14
  %10 = icmp ult i64 %7, %9
  br i1 %10, label %11, label %13

11:                                               ; preds = %2
  %12 = load ptr, ptr %5, align 8, !tbaa !42
  store ptr %12, ptr %3, align 8
  br label %15

13:                                               ; preds = %2
  %14 = load ptr, ptr %4, align 8, !tbaa !42
  store ptr %14, ptr %3, align 8
  br label %15

15:                                               ; preds = %13, %11
  %16 = load ptr, ptr %3, align 8
  ret ptr %16
}

; Function Attrs: mustprogress uwtable
define void @_ZN3net19TcpCubicSenderBytes12OnPacketLostEmmm(ptr noundef nonnull align 8 dereferenceable(296) %0, i64 noundef %1, i64 noundef %2, i64 noundef %3) unnamed_addr #0 align 2 personality ptr @__gxx_personality_v0 {
  %5 = alloca ptr, align 8
  %6 = alloca i64, align 8
  %7 = alloca i64, align 8
  %8 = alloca i64, align 8
  %9 = alloca i64, align 8
  %10 = alloca %"class.logging::CheckOpResult", align 8
  %11 = alloca %"class.logging::LogMessage", align 8
  %12 = alloca ptr, align 8
  %13 = alloca i32, align 4
  store ptr %0, ptr %5, align 8, !tbaa !3
  store i64 %1, ptr %6, align 8, !tbaa !14
  store i64 %2, ptr %7, align 8, !tbaa !14
  store i64 %3, ptr %8, align 8, !tbaa !14
  %14 = load ptr, ptr %5, align 8
  %15 = load i64, ptr %6, align 8, !tbaa !14
  %16 = getelementptr inbounds nuw %"class.net::TcpCubicSenderBase", ptr %14, i32 0, i32 10
  %17 = load i64, ptr %16, align 8, !tbaa !46
  %18 = icmp ule i64 %15, %17
  br i1 %18, label %19, label %52

19:                                               ; preds = %4
  %20 = getelementptr inbounds nuw %"class.net::TcpCubicSenderBase", ptr %14, i32 0, i32 12
  %21 = load i8, ptr %20, align 1, !tbaa !47, !range !18, !noundef !19
  %22 = trunc i8 %21 to i1
  br i1 %22, label %23, label %51

23:                                               ; preds = %19
  %24 = getelementptr inbounds nuw %"class.net::TcpCubicSenderBase", ptr %14, i32 0, i32 4
  %25 = load ptr, ptr %24, align 8, !tbaa !48
  %26 = getelementptr inbounds nuw %"struct.net::QuicConnectionStats", ptr %25, i32 0, i32 14
  %27 = load i64, ptr %26, align 8, !tbaa !49
  %28 = add i64 %27, 1
  store i64 %28, ptr %26, align 8, !tbaa !49
  %29 = load i64, ptr %7, align 8, !tbaa !14
  %30 = getelementptr inbounds nuw %"class.net::TcpCubicSenderBase", ptr %14, i32 0, i32 4
  %31 = load ptr, ptr %30, align 8, !tbaa !48
  %32 = getelementptr inbounds nuw %"struct.net::QuicConnectionStats", ptr %31, i32 0, i32 15
  %33 = load i64, ptr %32, align 8, !tbaa !52
  %34 = add i64 %33, %29
  store i64 %34, ptr %32, align 8, !tbaa !52
  %35 = getelementptr inbounds nuw %"class.net::TcpCubicSenderBase", ptr %14, i32 0, i32 13
  %36 = load i8, ptr %35, align 2, !tbaa !53, !range !18, !noundef !19
  %37 = trunc i8 %36 to i1
  br i1 %37, label %38, label %50

38:                                               ; preds = %23
  call void @llvm.lifetime.start.p0(i64 8, ptr %9) #9
  %39 = getelementptr inbounds nuw %"class.net::TcpCubicSenderBytes", ptr %14, i32 0, i32 3
  %40 = load i64, ptr %39, align 8, !tbaa !34
  %41 = load i64, ptr %7, align 8, !tbaa !14
  %42 = sub i64 %40, %41
  store i64 %42, ptr %9, align 8, !tbaa !14
  %43 = getelementptr inbounds nuw %"class.net::TcpCubicSenderBytes", ptr %14, i32 0, i32 9
  %44 = call noundef nonnull align 8 dereferenceable(8) ptr @_ZSt3maxImERKT_S2_S2_(ptr noundef nonnull align 8 dereferenceable(8) %9, ptr noundef nonnull align 8 dereferenceable(8) %43)
  %45 = load i64, ptr %44, align 8, !tbaa !14
  %46 = getelementptr inbounds nuw %"class.net::TcpCubicSenderBytes", ptr %14, i32 0, i32 3
  store i64 %45, ptr %46, align 8, !tbaa !34
  call void @llvm.lifetime.end.p0(i64 8, ptr %9) #9
  %47 = getelementptr inbounds nuw %"class.net::TcpCubicSenderBytes", ptr %14, i32 0, i32 3
  %48 = load i64, ptr %47, align 8, !tbaa !34
  %49 = getelementptr inbounds nuw %"class.net::TcpCubicSenderBytes", ptr %14, i32 0, i32 6
  store i64 %48, ptr %49, align 8, !tbaa !37
  br label %50

50:                                               ; preds = %38, %23
  br label %51

51:                                               ; preds = %50, %19
  br label %155

52:                                               ; preds = %4
  %53 = getelementptr inbounds nuw %"class.net::TcpCubicSenderBase", ptr %14, i32 0, i32 4
  %54 = load ptr, ptr %53, align 8, !tbaa !48
  %55 = getelementptr inbounds nuw %"struct.net::QuicConnectionStats", ptr %54, i32 0, i32 29
  %56 = load i32, ptr %55, align 8, !tbaa !54
  %57 = add i32 %56, 1
  store i32 %57, ptr %55, align 8, !tbaa !54
  %58 = load ptr, ptr %14, align 8, !tbaa !20
  %59 = getelementptr inbounds ptr, ptr %58, i64 13
  %60 = load ptr, ptr %59, align 8
  %61 = call noundef zeroext i1 %60(ptr noundef nonnull align 8 dereferenceable(141) %14)
  %62 = getelementptr inbounds nuw %"class.net::TcpCubicSenderBase", ptr %14, i32 0, i32 12
  %63 = zext i1 %61 to i8
  store i8 %63, ptr %62, align 1, !tbaa !47
  %64 = load ptr, ptr %14, align 8, !tbaa !20
  %65 = getelementptr inbounds ptr, ptr %64, i64 13
  %66 = load ptr, ptr %65, align 8
  %67 = call noundef zeroext i1 %66(ptr noundef nonnull align 8 dereferenceable(141) %14)
  br i1 %67, label %68, label %74

68:                                               ; preds = %52
  %69 = getelementptr inbounds nuw %"class.net::TcpCubicSenderBase", ptr %14, i32 0, i32 4
  %70 = load ptr, ptr %69, align 8, !tbaa !48
  %71 = getelementptr inbounds nuw %"struct.net::QuicConnectionStats", ptr %70, i32 0, i32 14
  %72 = load i64, ptr %71, align 8, !tbaa !49
  %73 = add i64 %72, 1
  store i64 %73, ptr %71, align 8, !tbaa !49
  br label %74

74:                                               ; preds = %68, %52
  %75 = getelementptr inbounds nuw %"class.net::TcpCubicSenderBase", ptr %14, i32 0, i32 15
  %76 = load i8, ptr %75, align 4, !tbaa !55, !range !18, !noundef !19
  %77 = trunc i8 %76 to i1
  br i1 %77, label %81, label %78

78:                                               ; preds = %74
  %79 = getelementptr inbounds nuw %"class.net::TcpCubicSenderBase", ptr %14, i32 0, i32 2
  %80 = load i64, ptr %8, align 8, !tbaa !14
  call void @_ZN3net9PrrSender12OnPacketLostEm(ptr noundef nonnull align 8 dereferenceable(32) %79, i64 noundef %80)
  br label %81

81:                                               ; preds = %78, %74
  %82 = getelementptr inbounds nuw %"class.net::TcpCubicSenderBase", ptr %14, i32 0, i32 13
  %83 = load i8, ptr %82, align 2, !tbaa !53, !range !18, !noundef !19
  %84 = trunc i8 %83 to i1
  br i1 %84, label %85, label %118

85:                                               ; preds = %81
  %86 = load ptr, ptr %14, align 8, !tbaa !20
  %87 = getelementptr inbounds ptr, ptr %86, i64 13
  %88 = load ptr, ptr %87, align 8
  %89 = call noundef zeroext i1 %88(ptr noundef nonnull align 8 dereferenceable(141) %14)
  br i1 %89, label %90, label %118

90:                                               ; preds = %85
  call void @llvm.lifetime.start.p0(i64 8, ptr %10) #9
  call void @_ZN7logging13CheckOpResultC2EPNSt7__cxx1112basic_stringIcSt11char_traitsIcESaIcEEE(ptr noundef nonnull align 8 dereferenceable(8) %10, ptr noundef null)
  %91 = call noundef zeroext i1 @_ZNK7logging13CheckOpResultcvbEv(ptr noundef nonnull align 8 dereferenceable(8) %10)
  br i1 %91, label %92, label %93

92:                                               ; preds = %90
  br label %101

93:                                               ; preds = %90
  call void @llvm.lifetime.start.p0(i64 408, ptr %11) #9
  %94 = call noundef ptr @_ZN7logging13CheckOpResult7messageB5cxx11Ev(ptr noundef nonnull align 8 dereferenceable(8) %10)
  call void @_ZN7logging10LogMessageC1EPKciiPNSt7__cxx1112basic_stringIcSt11char_traitsIcESaIcEEE(ptr noundef nonnull align 8 dereferenceable(404) %11, ptr noundef @.str, i32 noundef 119, i32 noundef 0, ptr noundef %94)
  %95 = invoke noundef nonnull align 8 dereferenceable(8) ptr @_ZN7logging10LogMessage6streamEv(ptr noundef nonnull align 8 dereferenceable(404) %11)
          to label %96 unwind label %97

96:                                               ; preds = %93
  call void @_ZN7logging10LogMessageD1Ev(ptr noundef nonnull align 8 dereferenceable(404) %11) #9
  call void @llvm.lifetime.end.p0(i64 408, ptr %11) #9
  br label %101

97:                                               ; preds = %93
  %98 = landingpad { ptr, i32 }
          cleanup
  %99 = extractvalue { ptr, i32 } %98, 0
  store ptr %99, ptr %12, align 8
  %100 = extractvalue { ptr, i32 } %98, 1
  store i32 %100, ptr %13, align 4
  call void @_ZN7logging10LogMessageD1Ev(ptr noundef nonnull align 8 dereferenceable(404) %11) #9
  call void @llvm.lifetime.end.p0(i64 408, ptr %11) #9
  call void @llvm.lifetime.end.p0(i64 8, ptr %10) #9
  br label %156

101:                                              ; preds = %96, %92
  call void @llvm.lifetime.end.p0(i64 8, ptr %10) #9
  %102 = getelementptr inbounds nuw %"class.net::TcpCubicSenderBytes", ptr %14, i32 0, i32 3
  %103 = load i64, ptr %102, align 8, !tbaa !34
  %104 = getelementptr inbounds nuw %"class.net::TcpCubicSenderBytes", ptr %14, i32 0, i32 7
  %105 = load i64, ptr %104, align 8, !tbaa !38
  %106 = mul i64 2, %105
  %107 = icmp uge i64 %103, %106
  br i1 %107, label %108, label %113

108:                                              ; preds = %101
  %109 = getelementptr inbounds nuw %"class.net::TcpCubicSenderBytes", ptr %14, i32 0, i32 3
  %110 = load i64, ptr %109, align 8, !tbaa !34
  %111 = udiv i64 %110, 2
  %112 = getelementptr inbounds nuw %"class.net::TcpCubicSenderBytes", ptr %14, i32 0, i32 9
  store i64 %111, ptr %112, align 8, !tbaa !40
  br label %113

113:                                              ; preds = %108, %101
  %114 = getelementptr inbounds nuw %"class.net::TcpCubicSenderBytes", ptr %14, i32 0, i32 3
  %115 = load i64, ptr %114, align 8, !tbaa !34
  %116 = sub i64 %115, 1460
  %117 = getelementptr inbounds nuw %"class.net::TcpCubicSenderBytes", ptr %14, i32 0, i32 3
  store i64 %116, ptr %117, align 8, !tbaa !34
  br label %137

118:                                              ; preds = %85, %81
  %119 = getelementptr inbounds nuw %"class.net::TcpCubicSenderBase", ptr %14, i32 0, i32 5
  %120 = load i8, ptr %119, align 8, !tbaa !56, !range !18, !noundef !19
  %121 = trunc i8 %120 to i1
  br i1 %121, label %122, label %130

122:                                              ; preds = %118
  %123 = getelementptr inbounds nuw %"class.net::TcpCubicSenderBytes", ptr %14, i32 0, i32 3
  %124 = load i64, ptr %123, align 8, !tbaa !34
  %125 = uitofp i64 %124 to float
  %126 = call noundef float @_ZNK3net18TcpCubicSenderBase8RenoBetaEv(ptr noundef nonnull align 8 dereferenceable(141) %14)
  %127 = fmul float %125, %126
  %128 = fptoui float %127 to i64
  %129 = getelementptr inbounds nuw %"class.net::TcpCubicSenderBytes", ptr %14, i32 0, i32 3
  store i64 %128, ptr %129, align 8, !tbaa !34
  br label %136

130:                                              ; preds = %118
  %131 = getelementptr inbounds nuw %"class.net::TcpCubicSenderBytes", ptr %14, i32 0, i32 1
  %132 = getelementptr inbounds nuw %"class.net::TcpCubicSenderBytes", ptr %14, i32 0, i32 3
  %133 = load i64, ptr %132, align 8, !tbaa !34
  %134 = call noundef i64 @_ZN3net10CubicBytes31CongestionWindowAfterPacketLossEm(ptr noundef nonnull align 8 dereferenceable(88) %131, i64 noundef %133)
  %135 = getelementptr inbounds nuw %"class.net::TcpCubicSenderBytes", ptr %14, i32 0, i32 3
  store i64 %134, ptr %135, align 8, !tbaa !34
  br label %136

136:                                              ; preds = %130, %122
  br label %137

137:                                              ; preds = %136, %113
  %138 = getelementptr inbounds nuw %"class.net::TcpCubicSenderBytes", ptr %14, i32 0, i32 3
  %139 = load i64, ptr %138, align 8, !tbaa !34
  %140 = getelementptr inbounds nuw %"class.net::TcpCubicSenderBytes", ptr %14, i32 0, i32 4
  %141 = load i64, ptr %140, align 8, !tbaa !35
  %142 = icmp ult i64 %139, %141
  br i1 %142, label %143, label %147

143:                                              ; preds = %137
  %144 = getelementptr inbounds nuw %"class.net::TcpCubicSenderBytes", ptr %14, i32 0, i32 4
  %145 = load i64, ptr %144, align 8, !tbaa !35
  %146 = getelementptr inbounds nuw %"class.net::TcpCubicSenderBytes", ptr %14, i32 0, i32 3
  store i64 %145, ptr %146, align 8, !tbaa !34
  br label %147

147:                                              ; preds = %143, %137
  %148 = getelementptr inbounds nuw %"class.net::TcpCubicSenderBytes", ptr %14, i32 0, i32 3
  %149 = load i64, ptr %148, align 8, !tbaa !34
  %150 = getelementptr inbounds nuw %"class.net::TcpCubicSenderBytes", ptr %14, i32 0, i32 6
  store i64 %149, ptr %150, align 8, !tbaa !37
  %151 = getelementptr inbounds nuw %"class.net::TcpCubicSenderBase", ptr %14, i32 0, i32 8
  %152 = load i64, ptr %151, align 8, !tbaa !57
  %153 = getelementptr inbounds nuw %"class.net::TcpCubicSenderBase", ptr %14, i32 0, i32 10
  store i64 %152, ptr %153, align 8, !tbaa !46
  %154 = getelementptr inbounds nuw %"class.net::TcpCubicSenderBytes", ptr %14, i32 0, i32 2
  store i64 0, ptr %154, align 8, !tbaa !22
  br label %155

155:                                              ; preds = %147, %51
  ret void

156:                                              ; preds = %97
  %157 = load ptr, ptr %12, align 8
  %158 = load i32, ptr %13, align 4
  %159 = insertvalue { ptr, i32 } poison, ptr %157, 0
  %160 = insertvalue { ptr, i32 } %159, i32 %158, 1
  resume { ptr, i32 } %160
}