; Function Attrs: mustprogress uwtable
define void @_ZN3net19TcpCubicSenderBytes12OnPacketLostEmmm(ptr noundef nonnull align 8 dereferenceable(296) %0, i64 noundef %1, i64 noundef %2, i64 noundef %3) unnamed_addr #0 align 2 personality ptr @__gxx_personality_v0 {
  %5 = getelementptr inbounds nuw i8, ptr %0, i64 128
  %6 = load i64, ptr %5, align 8, !tbaa !37
  %.not = icmp ugt i64 %1, %6
  br i1 %.not, label %29, label %7

7:                                                ; preds = %4
  %8 = getelementptr inbounds nuw i8, ptr %0, i64 137
  %9 = load i8, ptr %8, align 1, !tbaa !38, !range !33, !noundef !34
  %10 = trunc nuw i8 %9 to i1
  br i1 %10, label %11, label %105

11:                                               ; preds = %7
  %12 = getelementptr inbounds nuw i8, ptr %0, i64 96
  %13 = load ptr, ptr %12, align 8, !tbaa !39
  %14 = getelementptr inbounds nuw i8, ptr %13, i64 112
  %15 = load i64, ptr %14, align 8, !tbaa !40
  %16 = add i64 %15, 1
  store i64 %16, ptr %14, align 8, !tbaa !40
  %17 = getelementptr inbounds nuw i8, ptr %13, i64 120
  %18 = load i64, ptr %17, align 8, !tbaa !43
  %19 = add i64 %18, %2
  store i64 %19, ptr %17, align 8, !tbaa !43
  %20 = getelementptr inbounds nuw i8, ptr %0, i64 138
  %21 = load i8, ptr %20, align 2, !tbaa !44, !range !33, !noundef !34
  %22 = trunc nuw i8 %21 to i1
  br i1 %22, label %23, label %105

23:                                               ; preds = %11
  %24 = getelementptr inbounds nuw i8, ptr %0, i64 240
  %25 = load i64, ptr %24, align 8, !tbaa !25
  %26 = sub i64 %25, %2
  %27 = getelementptr inbounds nuw i8, ptr %0, i64 288
  %28 = load i64, ptr %27, align 8, !tbaa !35
  %.sroa.speculated = tail call i64 @llvm.umax.i64(i64 %26, i64 %28)
  store i64 %.sroa.speculated, ptr %24, align 8, !tbaa !25
  br label %.sink.split

29:                                               ; preds = %4
  %30 = getelementptr inbounds nuw i8, ptr %0, i64 96
  %31 = load ptr, ptr %30, align 8, !tbaa !39
  %32 = getelementptr inbounds nuw i8, ptr %31, i64 232
  %33 = load i32, ptr %32, align 8, !tbaa !45
  %34 = add i32 %33, 1
  store i32 %34, ptr %32, align 8, !tbaa !45
  %35 = load ptr, ptr %0, align 8, !tbaa !3
  %36 = getelementptr inbounds nuw i8, ptr %35, i64 104
  %37 = load ptr, ptr %36, align 8
  %38 = tail call noundef zeroext i1 %37(ptr noundef nonnull align 8 dereferenceable(141) %0)
  %39 = getelementptr inbounds nuw i8, ptr %0, i64 137
  %40 = zext i1 %38 to i8
  store i8 %40, ptr %39, align 1, !tbaa !38
  %41 = load ptr, ptr %0, align 8, !tbaa !3
  %42 = getelementptr inbounds nuw i8, ptr %41, i64 104
  %43 = load ptr, ptr %42, align 8
  %44 = tail call noundef zeroext i1 %43(ptr noundef nonnull align 8 dereferenceable(141) %0)
  br i1 %44, label %45, label %50

45:                                               ; preds = %29
  %46 = load ptr, ptr %30, align 8, !tbaa !39
  %47 = getelementptr inbounds nuw i8, ptr %46, i64 112
  %48 = load i64, ptr %47, align 8, !tbaa !40
  %49 = add i64 %48, 1
  store i64 %49, ptr %47, align 8, !tbaa !40
  br label %50

50:                                               ; preds = %45, %29
  %51 = getelementptr inbounds nuw i8, ptr %0, i64 140
  %52 = load i8, ptr %51, align 4, !tbaa !46, !range !33, !noundef !34
  %53 = trunc nuw i8 %52 to i1
  br i1 %53, label %56, label %54

54:                                               ; preds = %50
  %55 = getelementptr inbounds nuw i8, ptr %0, i64 56
  tail call void @_ZN3net9PrrSender12OnPacketLostEm(ptr noundef nonnull align 8 dereferenceable(32) %55, i64 noundef %3)
  br label %56

56:                                               ; preds = %54, %50
  %57 = getelementptr inbounds nuw i8, ptr %0, i64 138
  %58 = load i8, ptr %57, align 2, !tbaa !44, !range !33, !noundef !34
  %59 = trunc nuw i8 %58 to i1
  br i1 %59, label %60, label %76

60:                                               ; preds = %56
  %61 = load ptr, ptr %0, align 8, !tbaa !3
  %62 = getelementptr inbounds nuw i8, ptr %61, i64 104
  %63 = load ptr, ptr %62, align 8
  %64 = tail call noundef zeroext i1 %63(ptr noundef nonnull align 8 dereferenceable(141) %0)
  br i1 %64, label %65, label %76

65:                                               ; preds = %60
  %66 = getelementptr inbounds nuw i8, ptr %0, i64 240
  %67 = load i64, ptr %66, align 8, !tbaa !25
  %68 = getelementptr inbounds nuw i8, ptr %0, i64 272
  %69 = load i64, ptr %68, align 8, !tbaa !29
  %70 = shl i64 %69, 1
  %.not5 = icmp ult i64 %67, %70
  br i1 %.not5, label %74, label %71

71:                                               ; preds = %65
  %72 = lshr i64 %67, 1
  %73 = getelementptr inbounds nuw i8, ptr %0, i64 288
  store i64 %72, ptr %73, align 8, !tbaa !31
  br label %74

74:                                               ; preds = %71, %65
  %75 = add i64 %67, -1460
  store i64 %75, ptr %66, align 8, !tbaa !25
  br label %92

76:                                               ; preds = %60, %56
  %77 = getelementptr inbounds nuw i8, ptr %0, i64 104
  %78 = load i8, ptr %77, align 8, !tbaa !47, !range !33, !noundef !34
  %79 = trunc nuw i8 %78 to i1
  br i1 %79, label %80, label %87

80:                                               ; preds = %76
  %81 = getelementptr inbounds nuw i8, ptr %0, i64 240
  %82 = load i64, ptr %81, align 8, !tbaa !25
  %83 = uitofp i64 %82 to float
  %84 = tail call noundef float @_ZNK3net18TcpCubicSenderBase8RenoBetaEv(ptr noundef nonnull align 8 dereferenceable(141) %0)
  %85 = fmul float %84, %83
  %86 = fptoui float %85 to i64
  store i64 %86, ptr %81, align 8, !tbaa !25
  br label %92

87:                                               ; preds = %76
  %88 = getelementptr inbounds nuw i8, ptr %0, i64 144
  %89 = getelementptr inbounds nuw i8, ptr %0, i64 240
  %90 = load i64, ptr %89, align 8, !tbaa !25
  %91 = tail call noundef i64 @_ZN3net10CubicBytes31CongestionWindowAfterPacketLossEm(ptr noundef nonnull align 8 dereferenceable(88) %88, i64 noundef %90)
  store i64 %91, ptr %89, align 8, !tbaa !25
  br label %92

92:                                               ; preds = %80, %87, %74
  %93 = phi i64 [ %86, %80 ], [ %91, %87 ], [ %75, %74 ]
  %94 = getelementptr inbounds nuw i8, ptr %0, i64 248
  %95 = load i64, ptr %94, align 8, !tbaa !26
  %96 = icmp ult i64 %93, %95
  br i1 %96, label %97, label %99

97:                                               ; preds = %92
  %98 = getelementptr inbounds nuw i8, ptr %0, i64 240
  store i64 %95, ptr %98, align 8, !tbaa !25
  br label %99

99:                                               ; preds = %97, %92
  %100 = phi i64 [ %95, %97 ], [ %93, %92 ]
  %101 = getelementptr inbounds nuw i8, ptr %0, i64 264
  store i64 %100, ptr %101, align 8, !tbaa !28
  %102 = getelementptr inbounds nuw i8, ptr %0, i64 112
  %103 = load i64, ptr %102, align 8, !tbaa !48
  store i64 %103, ptr %5, align 8, !tbaa !37
  br label %.sink.split

.sink.split:                                      ; preds = %99, %23
  %.sink8 = phi i64 [ 264, %23 ], [ 232, %99 ]
  %.sroa.speculated.sink = phi i64 [ %.sroa.speculated, %23 ], [ 0, %99 ]
  %104 = getelementptr inbounds nuw i8, ptr %0, i64 %.sink8
  store i64 %.sroa.speculated.sink, ptr %104, align 8, !tbaa !35
  br label %105

105:                                              ; preds = %.sink.split, %7, %11
  ret void
}